target datalayout = "e-m:e-p270:32:32-p271:32:32-p272:64:64-i64:64-i128:128-f80:128-n8:16:32:64-S128"
target triple = "x86_64-pc-linux-gnu"

%struct.strvec = type { ptr, i64, i64 }
%struct.child_process = type { %struct.strvec, %struct.strvec, i32, i32, i64, ptr, ptr, i32, i32, i32, ptr, i16, ptr }
%struct.child_to_clean = type { i32, ptr, ptr }

@.str = private unnamed_addr constant [14 x i8] c"run-command.c\00", align 1
@children_to_clean = internal global ptr null, align 8
@.str.58 = private unnamed_addr constant [22 x i8] c"waitpid for %s failed\00", align 1
@.str.59 = private unnamed_addr constant [25 x i8] c"waitpid is confused (%s)\00", align 1
@.str.60 = private unnamed_addr constant [21 x i8] c"%s died of signal %d\00", align 1

; Function Attrs: nounwind uwtable
define internal void @clear_child_for_cleanup(i32 noundef %0) #0 {
  %2 = alloca i32, align 4
  %3 = alloca ptr, align 8
  %4 = alloca ptr, align 8
  %5 = alloca i32, align 4
  store i32 %0, ptr %2, align 4, !tbaa !16
  call void @llvm.lifetime.start.p0(i64 8, ptr %3) #13
  store ptr @children_to_clean, ptr %3, align 8, !tbaa !178
  br label %6

6:                                                ; preds = %28, %1
  %7 = load ptr, ptr %3, align 8, !tbaa !178
  %8 = load ptr, ptr %7, align 8, !tbaa !81
  %9 = icmp ne ptr %8, null
  br i1 %9, label %10, label %32

10:                                               ; preds = %6
  call void @llvm.lifetime.start.p0(i64 8, ptr %4) #13
  %11 = load ptr, ptr %3, align 8, !tbaa !178
  %12 = load ptr, ptr %11, align 8, !tbaa !81
  store ptr %12, ptr %4, align 8, !tbaa !81
  %13 = load ptr, ptr %4, align 8, !tbaa !81
  %14 = getelementptr inbounds nuw %struct.child_to_clean, ptr %13, i32 0, i32 0
  %15 = load i32, ptr %14, align 8, !tbaa !83
  %16 = load i32, ptr %2, align 4, !tbaa !16
  %17 = icmp eq i32 %15, %16
  br i1 %17, label %18, label %24

18:                                               ; preds = %10
  %19 = load ptr, ptr %4, align 8, !tbaa !81
  %20 = getelementptr inbounds nuw %struct.child_to_clean, ptr %19, i32 0, i32 2
  %21 = load ptr, ptr %20, align 8, !tbaa !86
  %22 = load ptr, ptr %3, align 8, !tbaa !178
  store ptr %21, ptr %22, align 8, !tbaa !81
  %23 = load ptr, ptr %4, align 8, !tbaa !81
  call void @free(ptr noundef %23) #13
  store i32 1, ptr %5, align 4
  br label %25

24:                                               ; preds = %10
  store i32 0, ptr %5, align 4
  br label %25

25:                                               ; preds = %24, %18
  call void @llvm.lifetime.end.p0(i64 8, ptr %4) #13
  %26 = load i32, ptr %5, align 4
  switch i32 %26, label %33 [
    i32 0, label %27
  ]

27:                                               ; preds = %25
  br label %28

28:                                               ; preds = %27
  %29 = load ptr, ptr %3, align 8, !tbaa !178
  %30 = load ptr, ptr %29, align 8, !tbaa !81
  %31 = getelementptr inbounds nuw %struct.child_to_clean, ptr %30, i32 0, i32 2
  store ptr %31, ptr %3, align 8, !tbaa !178
  br label %6, !llvm.loop !180

32:                                               ; preds = %6
  store i32 0, ptr %5, align 4
  br label %33

33:                                               ; preds = %32, %25
  call void @llvm.lifetime.end.p0(i64 8, ptr %3) #13
  %34 = load i32, ptr %5, align 4
  switch i32 %34, label %36 [
    i32 0, label %35
    i32 1, label %35
  ]

35:                                               ; preds = %33, %33
  ret void

36:                                               ; preds = %33
  unreachable
}

; Function Attrs: inlinehint nounwind uwtable
define internal i32 @const_error() #7 {
  ret i32 -1
}

; Function Attrs: nounwind uwtable
define internal i32 @wait_or_whine(i32 noundef %0, ptr noundef %1, i32 noundef %2) #0 {
  %4 = alloca i32, align 4
  %5 = alloca ptr, align 8
  %6 = alloca i32, align 4
  %7 = alloca i32, align 4
  %8 = alloca i32, align 4
  %9 = alloca i32, align 4
  %10 = alloca i32, align 4
  store i32 %0, ptr %4, align 4, !tbaa !16
  store ptr %1, ptr %5, align 8, !tbaa !9
  store i32 %2, ptr %6, align 4, !tbaa !16
  call void @llvm.lifetime.start.p0(i64 4, ptr %7) #13
  call void @llvm.lifetime.start.p0(i64 4, ptr %8) #13
  store i32 -1, ptr %8, align 4, !tbaa !16
  call void @llvm.lifetime.start.p0(i64 4, ptr %9) #13
  call void @llvm.lifetime.start.p0(i64 4, ptr %10) #13
  store i32 0, ptr %10, align 4, !tbaa !16
  br label %11

11:                                               ; preds = %21, %3
  %12 = load i32, ptr %4, align 4, !tbaa !16
  %13 = call i32 @waitpid(i32 noundef %12, ptr noundef %7, i32 noundef 0)
  store i32 %13, ptr %9, align 4, !tbaa !16
  %14 = icmp slt i32 %13, 0
  br i1 %14, label %15, label %19

15:                                               ; preds = %11
  %16 = call ptr @__errno_location() #15
  %17 = load i32, ptr %16, align 4, !tbaa !16
  %18 = icmp eq i32 %17, 4
  br label %19

19:                                               ; preds = %15, %11
  %20 = phi i1 [ false, %11 ], [ %18, %15 ]
  br i1 %20, label %21, label %22

21:                                               ; preds = %19
  br label %11, !llvm.loop !87

22:                                               ; preds = %19
  %23 = load i32, ptr %9, align 4, !tbaa !16
  %24 = icmp slt i32 %23, 0
  br i1 %24, label %25, label %35

25:                                               ; preds = %22
  %26 = call ptr @__errno_location() #15
  %27 = load i32, ptr %26, align 4, !tbaa !16
  store i32 %27, ptr %10, align 4, !tbaa !16
  %28 = load i32, ptr %6, align 4, !tbaa !16
  %29 = icmp ne i32 %28, 0
  br i1 %29, label %34, label %30

30:                                               ; preds = %25
  %31 = load ptr, ptr %5, align 8, !tbaa !9
  %32 = call i32 (ptr, ...) @error_errno(ptr noundef @.str.58, ptr noundef %31)
  %33 = call i32 @const_error()
  br label %34

34:                                               ; preds = %30, %25
  br label %96

35:                                               ; preds = %22
  %36 = load i32, ptr %9, align 4, !tbaa !16
  %37 = load i32, ptr %4, align 4, !tbaa !16
  %38 = icmp ne i32 %36, %37
  br i1 %38, label %39, label %47

39:                                               ; preds = %35
  %40 = load i32, ptr %6, align 4, !tbaa !16
  %41 = icmp ne i32 %40, 0
  br i1 %41, label %46, label %42

42:                                               ; preds = %39
  %43 = load ptr, ptr %5, align 8, !tbaa !9
  %44 = call i32 (ptr, ...) @error(ptr noundef @.str.59, ptr noundef %43)
  %45 = call i32 @const_error()
  br label %46

46:                                               ; preds = %42, %39
  br label %95

47:                                               ; preds = %35
  %48 = load i32, ptr %7, align 4, !tbaa !16
  %49 = and i32 %48, 127
  %50 = add nsw i32 %49, 1
  %51 = trunc i32 %50 to i8
  %52 = sext i8 %51 to i32
  %53 = ashr i32 %52, 1
  %54 = icmp sgt i32 %53, 0
  br i1 %54, label %55, label %77

55:                                               ; preds = %47
  %56 = load i32, ptr %7, align 4, !tbaa !16
  %57 = and i32 %56, 127
  store i32 %57, ptr %8, align 4, !tbaa !16
  %58 = load i32, ptr %6, align 4, !tbaa !16
  %59 = icmp ne i32 %58, 0
  br i1 %59, label %74, label %60

60:                                               ; preds = %55
  %61 = load i32, ptr %8, align 4, !tbaa !16
  %62 = icmp ne i32 %61, 2
  br i1 %62, label %63, label %74

63:                                               ; preds = %60
  %64 = load i32, ptr %8, align 4, !tbaa !16
  %65 = icmp ne i32 %64, 3
  br i1 %65, label %66, label %74

66:                                               ; preds = %63
  %67 = load i32, ptr %8, align 4, !tbaa !16
  %68 = icmp ne i32 %67, 13
  br i1 %68, label %69, label %74

69:                                               ; preds = %66
  %70 = load ptr, ptr %5, align 8, !tbaa !9
  %71 = load i32, ptr %8, align 4, !tbaa !16
  %72 = call i32 (ptr, ...) @error(ptr noundef @.str.60, ptr noundef %70, i32 noundef %71)
  %73 = call i32 @const_error()
  br label %74

74:                                               ; preds = %69, %66, %63, %60, %55
  %75 = load i32, ptr %8, align 4, !tbaa !16
  %76 = add nsw i32 %75, 128
  store i32 %76, ptr %8, align 4, !tbaa !16
  br label %94

77:                                               ; preds = %47
  %78 = load i32, ptr %7, align 4, !tbaa !16
  %79 = and i32 %78, 127
  %80 = icmp eq i32 %79, 0
  br i1 %80, label %81, label %85

81:                                               ; preds = %77
  %82 = load i32, ptr %7, align 4, !tbaa !16
  %83 = and i32 %82, 65280
  %84 = ashr i32 %83, 8
  store i32 %84, ptr %8, align 4, !tbaa !16
  br label %93

85:                                               ; preds = %77
  %86 = load i32, ptr %6, align 4, !tbaa !16
  %87 = icmp ne i32 %86, 0
  br i1 %87, label %92, label %88

88:                                               ; preds = %85
  %89 = load ptr, ptr %5, align 8, !tbaa !9
  %90 = call i32 (ptr, ...) @error(ptr noundef @.str.59, ptr noundef %89)
  %91 = call i32 @const_error()
  br label %92

92:                                               ; preds = %88, %85
  br label %93

93:                                               ; preds = %92, %81
  br label %94

94:                                               ; preds = %93, %74
  br label %95

95:                                               ; preds = %94, %46
  br label %96

96:                                               ; preds = %95, %34
  %97 = load i32, ptr %6, align 4, !tbaa !16
  %98 = icmp ne i32 %97, 0
  br i1 %98, label %101, label %99

99:                                               ; preds = %96
  %100 = load i32, ptr %4, align 4, !tbaa !16
  call void @clear_child_for_cleanup(i32 noundef %100)
  br label %101

101:                                              ; preds = %99, %96
  %102 = load i32, ptr %10, align 4, !tbaa !16
  %103 = call ptr @__errno_location() #15
  store i32 %102, ptr %103, align 4, !tbaa !16
  %104 = load i32, ptr %8, align 4, !tbaa !16
  call void @llvm.lifetime.end.p0(i64 4, ptr %10) #13
  call void @llvm.lifetime.end.p0(i64 4, ptr %9) #13
  call void @llvm.lifetime.end.p0(i64 4, ptr %8) #13
  call void @llvm.lifetime.end.p0(i64 4, ptr %7) #13
  ret i32 %104
}

; Function Attrs: nounwind uwtable
define dso_local i32 @finish_command_in_signal(ptr noundef %0) #0 {
  %2 = alloca ptr, align 8
  %3 = alloca i32, align 4
  store ptr %0, ptr %2, align 8, !tbaa !4
  call void @llvm.lifetime.start.p0(i64 4, ptr %3) #13
  %4 = load ptr, ptr %2, align 8, !tbaa !4
  %5 = getelementptr inbounds nuw %struct.child_process, ptr %4, i32 0, i32 2
  %6 = load i32, ptr %5, align 8, !tbaa !48
  %7 = load ptr, ptr %2, align 8, !tbaa !4
  %8 = getelementptr inbounds nuw %struct.child_process, ptr %7, i32 0, i32 0
  %9 = getelementptr inbounds nuw %struct.strvec, ptr %8, i32 0, i32 0
  %10 = load ptr, ptr %9, align 8, !tbaa !27
  %11 = getelementptr inbounds ptr, ptr %10, i64 0
  %12 = load ptr, ptr %11, align 8, !tbaa !9
  %13 = call i32 @wait_or_whine(i32 noundef %6, ptr noundef %12, i32 noundef 1)
  store i32 %13, ptr %3, align 4, !tbaa !16
  %14 = load i32, ptr %3, align 4, !tbaa !16
  %15 = icmp ne i32 %14, -1
  br i1 %15, label %16, label %19

16:                                               ; preds = %1
  %17 = load ptr, ptr %2, align 8, !tbaa !4
  %18 = load i32, ptr %3, align 4, !tbaa !16
  call void @trace2_child_exit_fl(ptr noundef @.str, i32 noundef 1000, ptr noundef %17, i32 noundef %18)
  br label %19

19:                                               ; preds = %16, %1
  %20 = load i32, ptr %3, align 4, !tbaa !16
  call void @llvm.lifetime.end.p0(i64 4, ptr %3) #13
  ret i32 %20
}