; Function Attrs: nounwind uwtable
define dso_local range(i32 -1, 256) i32 @finish_command_in_signal(ptr noundef %0) local_unnamed_addr #3 {
  %2 = alloca i32, align 4
  %3 = getelementptr inbounds nuw i8, ptr %0, i64 48
  %4 = load i32, ptr %3, align 8, !tbaa !62
  call void @llvm.lifetime.start.p0(i64 4, ptr nonnull %2) #21
  br label %5

5:                                                ; preds = %8, %1
  %6 = call i32 @waitpid(i32 noundef %4, ptr noundef nonnull %2, i32 noundef 0) #21
  %7 = icmp slt i32 %6, 0
  br i1 %7, label %8, label %.critedge32.i

8:                                                ; preds = %5
  %9 = tail call ptr @__errno_location() #23
  %10 = load i32, ptr %9, align 4, !tbaa !18
  %11 = icmp eq i32 %10, 4
  br i1 %11, label %5, label %wait_or_whine.exit.thread, !llvm.loop !80

.critedge32.i:                                    ; preds = %5
  %.not.i = icmp eq i32 %6, %4
  br i1 %.not.i, label %12, label %wait_or_whine.exit.thread

12:                                               ; preds = %.critedge32.i
  %13 = load i32, ptr %2, align 4, !tbaa !18
  %14 = and i32 %13, 127
  %15 = shl nuw nsw i32 %14, 24
  %sext.i = add nuw i32 %15, 16777216
  %16 = icmp sgt i32 %sext.i, 33554431
  br i1 %16, label %17, label %19

17:                                               ; preds = %12
  %18 = or disjoint i32 %14, 128
  br label %25

19:                                               ; preds = %12
  %20 = icmp eq i32 %14, 0
  br i1 %20, label %21, label %wait_or_whine.exit.thread

21:                                               ; preds = %19
  %22 = lshr i32 %13, 8
  %23 = and i32 %22, 255
  br label %25

wait_or_whine.exit.thread:                        ; preds = %8, %.critedge32.i, %19
  %.038.i.ph = phi i32 [ 0, %19 ], [ 0, %.critedge32.i ], [ %10, %8 ]
  %24 = tail call ptr @__errno_location() #23
  store i32 %.038.i.ph, ptr %24, align 4, !tbaa !18
  call void @llvm.lifetime.end.p0(i64 4, ptr nonnull %2) #21
  br label %27

25:                                               ; preds = %21, %17
  %.02536.i = phi i32 [ %18, %17 ], [ %23, %21 ]
  %26 = tail call ptr @__errno_location() #23
  store i32 0, ptr %26, align 4, !tbaa !18
  call void @llvm.lifetime.end.p0(i64 4, ptr nonnull %2) #21
  call void @trace2_child_exit_fl(ptr noundef nonnull @.str, i32 noundef 1000, ptr noundef nonnull %0, i32 noundef %.02536.i) #21
  br label %27

27:                                               ; preds = %wait_or_whine.exit.thread, %25
  %.02536.i8 = phi i32 [ -1, %wait_or_whine.exit.thread ], [ %.02536.i, %25 ]
  ret i32 %.02536.i8
}